	.file	"test_baseline.cpp"
	.local	_ZStL8__ioinit
	.comm	_ZStL8__ioinit,1,1
	.text
	.globl	_Z9factoriali
	.type	_Z9factoriali, @function
_Z9factoriali:
.LFB971:
	.cfi_startproc
	pushq	%rbp
	.cfi_def_cfa_offset 16
	.cfi_offset 6, -16
	movq	%rsp, %rbp
	.cfi_def_cfa_register 6
	subq	$16, %rsp
	movl	%edi, -4(%rbp)
	cmpl	$0, -4(%rbp)
	jne	.L2
	movl	$1, %eax
	jmp	.L3
.L2:
	movl	-4(%rbp), %eax
	subl	$1, %eax
	movl	%eax, %edi
	call	_Z9factoriali
	imull	-4(%rbp), %eax
.L3:
	leave
	.cfi_def_cfa 7, 8
	ret
	.cfi_endproc
.LFE971:
	.size	_Z9factoriali, .-_Z9factoriali
	.globl	_Z3foov
	.type	_Z3foov, @function
_Z3foov:
.LFB972:
	.cfi_startproc
	pushq	%rbp
	.cfi_def_cfa_offset 16
	.cfi_offset 6, -16
	movq	%rsp, %rbp
	.cfi_def_cfa_register 6
	subq	$16, %rsp
	movl	$12, %edi
	call	_Z9factoriali
	movl	%eax, -8(%rbp)
	movl	$0, %edi
	call	_Z9factoriali
	movl	%eax, -4(%rbp)
	movl	-8(%rbp), %eax
	movl	%eax, %esi
	movl	$_ZSt4cout, %edi
	call	_ZNSolsEi
	movl	$_ZSt4endlIcSt11char_traitsIcEERSt13basic_ostreamIT_T0_ES6_, %esi
	movq	%rax, %rdi
	call	_ZNSolsEPFRSoS_E
	movl	-4(%rbp), %eax
	movl	%eax, %esi
	movl	$_ZSt4cout, %edi
	call	_ZNSolsEi
	movl	$_ZSt4endlIcSt11char_traitsIcEERSt13basic_ostreamIT_T0_ES6_, %esi
	movq	%rax, %rdi
	call	_ZNSolsEPFRSoS_E
	leave
	.cfi_def_cfa 7, 8
	ret
	.cfi_endproc
.LFE972:
	.size	_Z3foov, .-_Z3foov
	.globl	main
	.type	main, @function
main:
.LFB973:
	.cfi_startproc
	pushq	%rbp
	.cfi_def_cfa_offset 16
	.cfi_offset 6, -16
	movq	%rsp, %rbp
	.cfi_def_cfa_register 6
	call	_Z3foov
	movl	$0, %eax
	popq	%rbp
	.cfi_def_cfa 7, 8
	ret
	.cfi_endproc
.LFE973:
	.size	main, .-main
	.type	_Z41__static_initialization_and_destruction_0ii, @function
_Z41__static_initialization_and_destruction_0ii:
.LFB979:
	.cfi_startproc
	pushq	%rbp
	.cfi_def_cfa_offset 16
	.cfi_offset 6, -16
	movq	%rsp, %rbp
	.cfi_def_cfa_register 6
	subq	$16, %rsp
	movl	%edi, -4(%rbp)
	movl	%esi, -8(%rbp)
	cmpl	$1, -4(%rbp)
	jne	.L7
	cmpl	$65535, -8(%rbp)
	jne	.L7
	movl	$_ZStL8__ioinit, %edi
	call	_ZNSt8ios_base4InitC1Ev
	movl	$__dso_handle, %edx
	movl	$_ZStL8__ioinit, %esi
	movl	$_ZNSt8ios_base4InitD1Ev, %edi
	call	__cxa_atexit
.L7:
	leave
	.cfi_def_cfa 7, 8
	ret
	.cfi_endproc
.LFE979:
	.size	_Z41__static_initialization_and_destruction_0ii, .-_Z41__static_initialization_and_destruction_0ii
	.type	_GLOBAL__sub_I__Z9factoriali, @function
_GLOBAL__sub_I__Z9factoriali:
.LFB980:
	.cfi_startproc
	pushq	%rbp
	.cfi_def_cfa_offset 16
	.cfi_offset 6, -16
	movq	%rsp, %rbp
	.cfi_def_cfa_register 6
	movl	$65535, %esi
	movl	$1, %edi
	call	_Z41__static_initialization_and_destruction_0ii
	popq	%rbp
	.cfi_def_cfa 7, 8
	ret
	.cfi_endproc
.LFE980:
	.size	_GLOBAL__sub_I__Z9factoriali, .-_GLOBAL__sub_I__Z9factoriali
	.section	.init_array,"aw"
	.align 8
	.quad	_GLOBAL__sub_I__Z9factoriali
	.hidden	__dso_handle
	.ident	"GCC: (Ubuntu 4.8.4-2ubuntu1~14.04.1) 4.8.4"
	.section	.note.GNU-stack,"",@progbits
